target datalayout = "e-m:e-p270:32:32-p271:32:32-p272:64:64-i64:64-i128:128-f80:128-n8:16:32:64-S128"
target triple = "x86_64-pc-linux-gnu"

@.str.133 = private unnamed_addr constant [11 x i8] c"#line %d \22\00", align 1
@.str.134 = private unnamed_addr constant [3 x i8] c"\22\0A\00", align 1

; Function Attrs: null_pointer_is_valid sspstrong uwtable
define hidden void @tplt_linedir(ptr noundef %0, i32 noundef %1, ptr noundef %2) #0 {
  %4 = alloca ptr, align 8
  %5 = alloca i32, align 4
  %6 = alloca ptr, align 8
  store ptr %0, ptr %4, align 8
  store i32 %1, ptr %5, align 4
  store ptr %2, ptr %6, align 8
  %7 = load ptr, ptr %4, align 8
  %8 = load i32, ptr %5, align 4
  %9 = call i32 (ptr, i32, ptr, ...) @__fprintf_chk(ptr noundef %7, i32 noundef 2, ptr noundef @.str.133, i32 noundef %8)
  br label %10

10:                                               ; preds = %22, %3
  %11 = load ptr, ptr %6, align 8
  %12 = load i8, ptr %11, align 1
  %13 = icmp ne i8 %12, 0
  br i1 %13, label %14, label %30

14:                                               ; preds = %10
  %15 = load ptr, ptr %6, align 8
  %16 = load i8, ptr %15, align 1
  %17 = sext i8 %16 to i32
  %18 = icmp eq i32 %17, 92
  br i1 %18, label %19, label %22

19:                                               ; preds = %14
  %20 = load ptr, ptr %4, align 8
  %21 = call i32 @putc(i32 noundef 92, ptr noundef %20)
  br label %22

22:                                               ; preds = %19, %14
  %23 = load ptr, ptr %6, align 8
  %24 = load i8, ptr %23, align 1
  %25 = sext i8 %24 to i32
  %26 = load ptr, ptr %4, align 8
  %27 = call i32 @putc(i32 noundef %25, ptr noundef %26)
  %28 = load ptr, ptr %6, align 8
  %29 = getelementptr i8, ptr %28, i32 1
  store ptr %29, ptr %6, align 8
  br label %10, !llvm.loop !208

30:                                               ; preds = %10
  %31 = load ptr, ptr %4, align 8
  %32 = call i32 (ptr, i32, ptr, ...) @__fprintf_chk(ptr noundef %31, i32 noundef 2, ptr noundef @.str.134)
  ret void
}