; Function Attrs: null_pointer_is_valid sspstrong uwtable
define hidden void @tplt_linedir(ptr noundef %0, i32 noundef %1, ptr noundef readonly captures(none) %2) local_unnamed_addr #0 {
  %4 = tail call i32 (ptr, i32, ptr, ...) @__fprintf_chk(ptr noundef %0, i32 noundef 2, ptr noundef nonnull @.str.133, i32 noundef %1)
  br label %5

5:                                                ; preds = %9, %3
  %.0 = phi ptr [ %2, %3 ], [ %13, %9 ]
  %6 = load i8, ptr %.0, align 1
  switch i8 %6, label %9 [
    i8 0, label %14
    i8 92, label %7
  ]

7:                                                ; preds = %5
  %8 = tail call i32 @putc(i32 noundef 92, ptr noundef %0)
  %.pre = load i8, ptr %.0, align 1
  br label %9

9:                                                ; preds = %5, %7
  %10 = phi i8 [ %6, %5 ], [ %.pre, %7 ]
  %11 = sext i8 %10 to i32
  %12 = tail call i32 @putc(i32 noundef %11, ptr noundef %0)
  %13 = getelementptr i8, ptr %.0, i64 1
  br label %5, !llvm.loop !217

14:                                               ; preds = %5
  %15 = tail call i32 (ptr, i32, ptr, ...) @__fprintf_chk(ptr noundef %0, i32 noundef 2, ptr noundef nonnull @.str.134)
  ret void
}